(csympy.core.mul
Mul
p0
(csympy.core.power
Pow
p1
(g0
(g1
(csympy.core.add
Add
p2
(g0
(csympy.core.symbol
Symbol
p3
(S'a'
p4
tp5
Rp6
(dp7
S'_assumptions'
p8
ccopy_reg
_reconstructor
p9
(csympy.core.assumptions
StdFactKB
p10
c__builtin__
dict
p11
(dp12
S'real'
p13
NsS'polar'
p14
NsS'irrational'
p15
NsS'antihermitian'
p16
NsS'nonpositive'
p17
NsS'algebraic'
p18
NsS'hermitian'
p19
NsS'infinite'
p20
NsS'integer'
p21
NsS'imaginary'
p22
NsS'odd'
p23
NsS'even'
p24
NsS'commutative'
p25
I01
sS'zero'
p26
NsS'positive'
p27
NsS'negative'
p28
NsS'nonnegative'
p29
NsS'complex'
p30
NsS'rational'
p31
NsS'finite'
p32
Nstp33
Rp34
sbg1
(g3
(S'f'
p35
tp36
Rp37
(dp38
g8
g9
(g10
g11
(dp39
g13
Nsg14
Nsg15
Nsg16
Nsg17
Nsg18
Nsg26
Nsg20
Nsg21
Nsg19
Nsg23
Nsg22
Nsg24
Nsg25
I01
sg27
Nsg28
Nsg29
Nsg30
Nsg31
Nsg32
Nstp40
Rp41
sbcsympy.core.numbers
Integer
p42
(I4
tp43
Rp44
(dp45
btp46
Rp47
(dp48
btp49
Rp50
(dp51
bg0
(g6
g1
(g3
(S'h'
p52
tp53
Rp54
(dp55
g8
g9
(g10
g11
(dp56
g13
Nsg14
Nsg15
Nsg16
Nsg17
Nsg18
Nsg26
Nsg20
Nsg21
Nsg19
Nsg23
Nsg22
Nsg24
Nsg25
I01
sg27
Nsg28
Nsg29
Nsg30
Nsg31
Nsg32
Nstp57
Rp58
sbg44
tp59
Rp60
(dp61
btp62
Rp63
(dp64
bg0
(g3
(S'e'
p65
tp66
Rp67
(dp68
g8
g9
(g10
g11
(dp69
g13
Nsg14
Nsg15
Nsg16
Nsg17
Nsg18
Nsg26
Nsg20
Nsg21
Nsg19
Nsg23
Nsg22
Nsg24
Nsg25
I01
sg27
Nsg28
Nsg29
Nsg30
Nsg31
Nsg32
Nstp70
Rp71
sbg1
(g3
(S'c'
p72
tp73
Rp74
(dp75
g8
g9
(g10
g11
(dp76
g13
Nsg14
Nsg15
Nsg16
Nsg17
Nsg18
Nsg19
Nsg20
Nsg21
Nsg22
Nsg23
Nsg24
Nsg25
I01
sg26
Nsg27
Nsg28
Nsg29
Nsg30
Nsg31
Nsg32
Nstp77
Rp78
sbg42
(I2
tp79
Rp80
(dp81
btp82
Rp83
(dp84
bg1
(g37
g80
tp85
Rp86
(dp87
btp88
Rp89
(dp90
bg0
(g67
g83
g1
(g54
g80
tp91
Rp92
(dp93
btp94
Rp95
(dp96
bg0
(g67
g86
g1
(g3
(S'g'
p97
tp98
Rp99
(dp100
g8
g9
(g10
g11
(dp101
g13
Nsg14
Nsg15
Nsg16
Nsg17
Nsg18
Nsg26
Nsg20
Nsg21
Nsg19
Nsg23
Nsg22
Nsg24
Nsg25
I01
sg27
Nsg28
Nsg29
Nsg30
Nsg31
Nsg32
Nstp102
Rp103
sbg80
tp104
Rp105
(dp106
btp107
Rp108
(dp109
bg0
(g67
g105
g92
tp110
Rp111
(dp112
bg0
(g3
(S'i'
p113
tp114
Rp115
(dp116
g8
g9
(g10
g11
(dp117
g13
Nsg14
Nsg15
Nsg16
Nsg17
Nsg18
Nsg26
Nsg20
Nsg21
Nsg19
Nsg23
Nsg22
Nsg24
Nsg25
I01
sg27
Nsg28
Nsg29
Nsg30
Nsg31
Nsg32
Nstp118
Rp119
sbg1
(g3
(S'b'
p120
tp121
Rp122
(dp123
g8
g9
(g10
g11
(dp124
g13
Nsg14
Nsg15
Nsg16
Nsg17
Nsg18
Nsg26
Nsg20
Nsg21
Nsg19
Nsg23
Nsg22
Nsg24
Nsg25
I01
sg27
Nsg28
Nsg29
Nsg30
Nsg31
Nsg32
Nstp125
Rp126
sbg80
tp127
Rp128
(dp129
bg86
tp130
Rp131
(dp132
bg0
(g115
g128
g92
tp133
Rp134
(dp135
bg0
(g115
g1
(g3
(S'd'
p136
tp137
Rp138
(dp139
g8
g9
(g10
g11
(dp140
g13
Nsg14
Nsg15
Nsg16
Nsg17
Nsg18
Nsg26
Nsg20
Nsg21
Nsg19
Nsg23
Nsg22
Nsg24
Nsg25
I01
sg27
Nsg28
Nsg29
Nsg30
Nsg31
Nsg32
Nstp141
Rp142
sbg80
tp143
Rp144
(dp145
bg86
tp146
Rp147
(dp148
bg0
(g115
g144
g92
tp149
Rp150
(dp151
bg0
(csympy.core.numbers
NegativeOne
p152
(tRp153
(dp154
bg122
g74
g1
(g37
g42
(I3
tp155
Rp156
(dp157
btp158
Rp159
(dp160
btp161
Rp162
(dp163
bg0
(g153
g122
g74
g1
(g54
g156
tp164
Rp165
(dp166
btp167
Rp168
(dp169
bg0
(g153
g122
g99
g159
tp170
Rp171
(dp172
bg0
(g153
g122
g99
g165
tp173
Rp174
(dp175
bg0
(g153
g74
g138
g159
tp176
Rp177
(dp178
bg0
(g153
g74
g138
g165
tp179
Rp180
(dp181
bg0
(g153
g138
g99
g159
tp182
Rp183
(dp184
bg0
(g153
g138
g99
g165
tp185
Rp186
(dp187
bg0
(g42
(I-4
tp188
Rp189
(dp190
bg67
g128
g1
(g115
g80
tp191
Rp192
(dp193
btp194
Rp195
(dp196
bg0
(g189
g67
g144
g192
tp197
Rp198
(dp199
bg0
(g189
g115
g83
g1
(g67
g80
tp200
Rp201
(dp202
btp203
Rp204
(dp205
bg0
(g189
g115
g201
g105
tp206
Rp207
(dp208
bg0
(g44
g6
g37
g165
tp209
Rp210
(dp211
bg0
(g44
g6
g54
g159
tp212
Rp213
(dp214
bg0
(g42
(I6
tp215
Rp216
(dp217
bg6
g86
g92
tp218
Rp219
(dp220
bg0
(g42
(I16
tp221
Rp222
(dp223
bg6
g201
g192
tp224
Rp225
(dp226
bg0
(g42
(I-8
tp227
Rp228
(dp229
bg6
g67
g115
g86
tp230
Rp231
(dp232
bg0
(g228
g6
g67
g115
g92
tp233
Rp234
(dp235
bg0
(g228
g122
g138
g67
g192
tp236
Rp237
(dp238
bg0
(g228
g74
g99
g115
g201
tp239
Rp240
(dp241
bg0
(g42
(I-3
tp242
Rp243
(dp244
bg122
g74
g37
g92
tp245
Rp246
(dp247
bg0
(g243
g122
g74
g54
g86
tp248
Rp249
(dp250
bg0
(g243
g122
g37
g99
g92
tp251
Rp252
(dp253
bg0
(g243
g122
g99
g54
g86
tp254
Rp255
(dp256
bg0
(g243
g74
g138
g37
g92
tp257
Rp258
(dp259
bg0
(g243
g74
g138
g54
g86
tp260
Rp261
(dp262
bg0
(g243
g138
g37
g99
g92
tp263
Rp264
(dp265
bg0
(g243
g138
g99
g54
g86
tp266
Rp267
(dp268
bg0
(g80
g122
g138
g115
g86
tp269
Rp270
(dp271
bg0
(g80
g122
g138
g115
g92
tp272
Rp273
(dp274
bg0
(g80
g74
g67
g99
g86
tp275
Rp276
(dp277
bg0
(g80
g74
g67
g99
g92
tp278
Rp279
(dp280
bg0
(g80
g67
g37
g54
g83
tp281
Rp282
(dp283
bg0
(g80
g67
g37
g54
g105
tp284
Rp285
(dp286
bg0
(g80
g37
g54
g115
g128
tp287
Rp288
(dp289
bg0
(g80
g37
g54
g115
g144
tp290
Rp291
(dp292
bg0
(g42
(I-16
tp293
Rp294
(dp295
bg6
g67
g37
g54
g115
tp296
Rp297
(dp298
bg0
(g44
g122
g74
g67
g37
g115
tp299
Rp300
(dp301
bg0
(g44
g122
g74
g67
g54
g115
tp302
Rp303
(dp304
bg0
(g44
g122
g138
g37
g54
g115
tp305
Rp306
(dp307
bg0
(g44
g122
g67
g37
g99
g115
tp308
Rp309
(dp310
bg0
(g44
g122
g67
g99
g54
g115
tp311
Rp312
(dp313
bg0
(g44
g74
g138
g67
g37
g115
tp314
Rp315
(dp316
bg0
(g44
g74
g138
g67
g54
g115
tp317
Rp318
(dp319
bg0
(g44
g74
g67
g37
g99
g54
tp320
Rp321
(dp322
bg0
(g44
g138
g67
g37
g99
g115
tp323
Rp324
(dp325
bg0
(g44
g138
g67
g99
g54
g115
tp326
Rp327
(dp328
btp329
Rp330
(dp331
bg153
tp332
Rp333
(dp334
bg2
(g0
(g128
g86
tp335
Rp336
(dp337
bg0
(g128
g92
tp338
Rp339
(dp340
bg0
(g144
g86
tp341
Rp342
(dp343
bg0
(g144
g92
tp344
Rp345
(dp346
bg0
(g44
g83
g201
tp347
Rp348
(dp349
bg0
(g44
g201
g105
tp350
Rp351
(dp352
bg0
(g80
g122
g138
g86
tp353
Rp354
(dp355
bg0
(g80
g122
g138
g92
tp356
Rp357
(dp358
bg0
(g80
g37
g54
g128
tp359
Rp360
(dp361
bg0
(g80
g37
g54
g144
tp362
Rp363
(dp364
bg0
(g42
(I8
tp365
Rp366
(dp367
bg74
g99
g201
tp368
Rp369
(dp370
bg0
(g189
g122
g74
g67
g37
tp371
Rp372
(dp373
bg0
(g189
g122
g74
g67
g54
tp374
Rp375
(dp376
bg0
(g189
g122
g67
g37
g99
tp377
Rp378
(dp379
bg0
(g189
g122
g67
g99
g54
tp380
Rp381
(dp382
bg0
(g189
g74
g138
g67
g37
tp383
Rp384
(dp385
bg0
(g189
g74
g138
g67
g54
tp386
Rp387
(dp388
bg0
(g189
g138
g67
g37
g99
tp389
Rp390
(dp391
bg0
(g189
g138
g67
g99
g54
tp392
Rp393
(dp394
bg0
(g44
g122
g138
g37
g54
tp395
Rp396
(dp397
btp398
Rp399
(dp400
btp401
Rp402
(dp403
bcsympy.core.numbers
Half
p404
(tRp405
(dp406
btp407
Rp408
(dp409
bg1
(g2
(g0
(g122
g37
tp410
Rp411
(dp412
bg0
(g122
g54
tp413
Rp414
(dp415
bg0
(g138
g37
tp416
Rp417
(dp418
bg0
(g138
g54
tp419
Rp420
(dp421
bg0
(g42
(I-2
tp422
Rp423
(dp424
bg74
g67
tp425
Rp426
(dp427
bg0
(g423
g67
g99
tp428
Rp429
(dp430
btp431
Rp432
(dp433
bg153
tp434
Rp435
(dp436
bg2
(g86
g92
g0
(g189
g67
g115
tp437
Rp438
(dp439
bg0
(g80
g37
g54
tp440
Rp441
(dp442
btp443
Rp444
(dp445
btp446
Rp447
(dp448
bg0
(g1
(g0
(g1
(g2
(g0
(g67
g1
(g74
g44
tp449
Rp450
(dp451
btp452
Rp453
(dp454
bg0
(g67
g1
(g99
g44
tp455
Rp456
(dp457
btp458
Rp459
(dp460
bg0
(g6
g83
g86
tp461
Rp462
(dp463
bg0
(g6
g83
g92
tp464
Rp465
(dp466
bg0
(g6
g86
g105
tp467
Rp468
(dp469
bg0
(g6
g105
g92
tp470
Rp471
(dp472
bg0
(g115
g128
g83
tp473
Rp474
(dp475
bg0
(g115
g128
g105
tp476
Rp477
(dp478
bg0
(g115
g83
g144
tp479
Rp480
(dp481
bg0
(g115
g144
g105
tp482
Rp483
(dp484
bg0
(g153
g122
g37
g1
(g74
g156
tp485
Rp486
(dp487
btp488
Rp489
(dp490
bg0
(g153
g122
g37
g1
(g99
g156
tp491
Rp492
(dp493
btp494
Rp495
(dp496
bg0
(g153
g122
g54
g486
tp497
Rp498
(dp499
bg0
(g153
g122
g54
g492
tp500
Rp501
(dp502
bg0
(g153
g138
g37
g486
tp503
Rp504
(dp505
bg0
(g153
g138
g37
g492
tp506
Rp507
(dp508
bg0
(g153
g138
g54
g486
tp509
Rp510
(dp511
bg0
(g153
g138
g54
g492
tp512
Rp513
(dp514
bg0
(g189
g6
g128
g192
tp515
Rp516
(dp517
bg0
(g189
g6
g144
g192
tp518
Rp519
(dp520
bg0
(g189
g115
g1
(g6
g80
tp521
Rp522
(dp523
bg86
tp524
Rp525
(dp526
bg0
(g189
g115
g522
g92
tp527
Rp528
(dp529
bg0
(g44
g74
g67
g492
tp530
Rp531
(dp532
bg0
(g44
g67
g99
g486
tp533
Rp534
(dp535
bg0
(g216
g67
g83
g105
tp536
Rp537
(dp538
bg0
(g222
g67
g522
g192
tp539
Rp540
(dp541
bg0
(g228
g6
g122
g138
g192
tp542
Rp543
(dp544
bg0
(g228
g6
g67
g115
g83
tp545
Rp546
(dp547
bg0
(g228
g6
g67
g115
g105
tp548
Rp549
(dp550
bg0
(g228
g37
g54
g115
g522
tp551
Rp552
(dp553
bg0
(g243
g122
g74
g37
g105
tp554
Rp555
(dp556
bg0
(g243
g122
g74
g54
g105
tp557
Rp558
(dp559
bg0
(g243
g122
g37
g99
g83
tp560
Rp561
(dp562
bg0
(g243
g122
g99
g54
g83
tp563
Rp564
(dp565
bg0
(g243
g74
g138
g37
g105
tp566
Rp567
(dp568
bg0
(g243
g74
g138
g54
g105
tp569
Rp570
(dp571
bg0
(g243
g138
g37
g99
g83
tp572
Rp573
(dp574
bg0
(g243
g138
g99
g54
g83
tp575
Rp576
(dp577
bg0
(g80
g6
g74
g99
g86
tp578
Rp579
(dp580
bg0
(g80
g6
g74
g99
g92
tp581
Rp582
(dp583
bg0
(g80
g6
g37
g54
g83
tp584
Rp585
(dp586
bg0
(g80
g6
g37
g54
g105
tp587
Rp588
(dp589
bg0
(g80
g122
g138
g115
g83
tp590
Rp591
(dp592
bg0
(g80
g122
g138
g115
g105
tp593
Rp594
(dp595
bg0
(g80
g74
g99
g115
g128
tp596
Rp597
(dp598
bg0
(g80
g74
g99
g115
g144
tp599
Rp600
(dp601
bg0
(g294
g6
g74
g67
g99
g115
tp602
Rp603
(dp604
bg0
(g44
g6
g122
g74
g37
g115
tp605
Rp606
(dp607
bg0
(g44
g6
g122
g74
g54
g115
tp608
Rp609
(dp610
bg0
(g44
g6
g122
g37
g99
g115
tp611
Rp612
(dp613
bg0
(g44
g6
g122
g99
g54
g115
tp614
Rp615
(dp616
bg0
(g44
g6
g74
g138
g37
g115
tp617
Rp618
(dp619
bg0
(g44
g6
g74
g138
g54
g115
tp620
Rp621
(dp622
bg0
(g44
g6
g74
g37
g99
g54
tp623
Rp624
(dp625
bg0
(g44
g6
g138
g37
g99
g115
tp626
Rp627
(dp628
bg0
(g44
g6
g138
g99
g54
g115
tp629
Rp630
(dp631
bg0
(g44
g122
g74
g138
g99
g115
tp632
Rp633
(dp634
btp635
Rp636
(dp637
bg153
tp638
Rp639
(dp640
bg2
(g0
(g128
g83
tp641
Rp642
(dp643
bg0
(g128
g105
tp644
Rp645
(dp646
bg0
(g83
g144
tp647
Rp648
(dp649
bg0
(g144
g105
tp650
Rp651
(dp652
bg0
(g44
g522
g86
tp653
Rp654
(dp655
bg0
(g44
g522
g92
tp656
Rp657
(dp658
bg0
(g80
g122
g138
g83
tp659
Rp660
(dp661
bg0
(g80
g122
g138
g105
tp662
Rp663
(dp664
bg0
(g80
g74
g99
g128
tp665
Rp666
(dp667
bg0
(g80
g74
g99
g144
tp668
Rp669
(dp670
bg0
(g366
g37
g54
g522
tp671
Rp672
(dp673
bg0
(g189
g6
g122
g74
g37
tp674
Rp675
(dp676
bg0
(g189
g6
g122
g74
g54
tp677
Rp678
(dp679
bg0
(g189
g6
g122
g37
g99
tp680
Rp681
(dp682
bg0
(g189
g6
g122
g99
g54
tp683
Rp684
(dp685
bg0
(g189
g6
g74
g138
g37
tp686
Rp687
(dp688
bg0
(g189
g6
g74
g138
g54
tp689
Rp690
(dp691
bg0
(g189
g6
g138
g37
g99
tp692
Rp693
(dp694
bg0
(g189
g6
g138
g99
g54
tp695
Rp696
(dp697
bg0
(g44
g122
g74
g138
g99
tp698
Rp699
(dp700
btp701
Rp702
(dp703
btp704
Rp705
(dp706
bg405
tp707
Rp708
(dp709
bg1
(g2
(g0
(g122
g74
tp710
Rp711
(dp712
bg0
(g122
g99
tp713
Rp714
(dp715
bg0
(g74
g138
tp716
Rp717
(dp718
bg0
(g138
g99
tp719
Rp720
(dp721
bg0
(g423
g6
g37
tp722
Rp723
(dp724
bg0
(g423
g6
g54
tp725
Rp726
(dp727
btp728
Rp729
(dp730
bg153
tp731
Rp732
(dp733
bg2
(g0
(g153
g83
tp734
Rp735
(dp736
bg0
(g153
g105
tp737
Rp738
(dp739
bg0
(g423
g74
g99
tp740
Rp741
(dp742
bg0
(g44
g6
g115
tp743
Rp744
(dp745
btp746
Rp747
(dp748
btp749
Rp750
(dp751
bg1
(g0
(g1
(g2
(g0
(g153
g6
g86
tp752
Rp753
(dp754
bg0
(g153
g6
g92
tp755
Rp756
(dp757
bg0
(g153
g67
g83
tp758
Rp759
(dp760
bg0
(g153
g67
g105
tp761
Rp762
(dp763
bg0
(g153
g115
g128
tp764
Rp765
(dp766
bg0
(g153
g115
g144
tp767
Rp768
(dp769
bg0
(g122
g74
g37
tp770
Rp771
(dp772
bg0
(g122
g74
g54
tp773
Rp774
(dp775
bg0
(g122
g37
g99
tp776
Rp777
(dp778
bg0
(g122
g99
g54
tp779
Rp780
(dp781
bg0
(g74
g138
g37
tp782
Rp783
(dp784
bg0
(g74
g138
g54
tp785
Rp786
(dp787
bg0
(g138
g37
g99
tp788
Rp789
(dp790
bg0
(g138
g99
g54
tp791
Rp792
(dp793
bg0
(g423
g6
g37
g54
tp794
Rp795
(dp796
bg0
(g423
g122
g138
g115
tp797
Rp798
(dp799
bg0
(g423
g74
g67
g99
tp800
Rp801
(dp802
bg0
(g44
g6
g67
g115
tp803
Rp804
(dp805
btp806
Rp807
(dp808
bg153
tp809
Rp810
(dp811
bg2
(g0
(g153
g128
tp812
Rp813
(dp814
bg0
(g153
g144
tp815
Rp816
(dp817
bg0
(g423
g122
g138
tp818
Rp819
(dp820
bg0
(g44
g6
g67
tp821
Rp822
(dp823
btp824
Rp825
(dp826
btp827
Rp828
(dp829
bg405
tp830
Rp831
(dp832
btp833
.